target datalayout = "e-m:e-p270:32:32-p271:32:32-p272:64:64-i64:64-i128:128-f80:128-n8:16:32:64-S128"
target triple = "x86_64-pc-linux-gnu"

%"union.pxrInternal_v0_24__pxrReserved__::pxr_half::half::uif" = type { i32 }

; Function Attrs: mustprogress nounwind uwtable
define void @_ZN32pxrInternal_v0_24__pxrReserved__8pxr_half9printBitsEPcf(ptr noundef %0, float noundef %1) #0 {
  %3 = alloca ptr, align 8
  %4 = alloca float, align 4
  %5 = alloca %"union.pxrInternal_v0_24__pxrReserved__::pxr_half::half::uif", align 4
  %6 = alloca i32, align 4
  %7 = alloca i32, align 4
  store ptr %0, ptr %3, align 8
  store float %1, ptr %4, align 4
  %8 = load float, ptr %4, align 4
  store float %8, ptr %5, align 4
  store i32 31, ptr %6, align 4
  store i32 0, ptr %7, align 4
  br label %9

9:                                                ; preds = %35, %2
  %10 = load i32, ptr %6, align 4
  %11 = icmp sge i32 %10, 0
  br i1 %11, label %12, label %40

12:                                               ; preds = %9
  %13 = load i32, ptr %5, align 4
  %14 = load i32, ptr %6, align 4
  %15 = lshr i32 %13, %14
  %16 = and i32 %15, 1
  %17 = icmp ne i32 %16, 0
  %18 = select i1 %17, i8 49, i8 48
  %19 = load ptr, ptr %3, align 8
  %20 = load i32, ptr %7, align 4
  %21 = sext i32 %20 to i64
  %22 = getelementptr inbounds i8, ptr %19, i64 %21
  store i8 %18, ptr %22, align 1
  %23 = load i32, ptr %6, align 4
  %24 = icmp eq i32 %23, 31
  br i1 %24, label %28, label %25

25:                                               ; preds = %12
  %26 = load i32, ptr %6, align 4
  %27 = icmp eq i32 %26, 23
  br i1 %27, label %28, label %34

28:                                               ; preds = %25, %12
  %29 = load ptr, ptr %3, align 8
  %30 = load i32, ptr %7, align 4
  %31 = add nsw i32 %30, 1
  store i32 %31, ptr %7, align 4
  %32 = sext i32 %31 to i64
  %33 = getelementptr inbounds i8, ptr %29, i64 %32
  store i8 32, ptr %33, align 1
  br label %34

34:                                               ; preds = %28, %25
  br label %35

35:                                               ; preds = %34
  %36 = load i32, ptr %6, align 4
  %37 = add nsw i32 %36, -1
  store i32 %37, ptr %6, align 4
  %38 = load i32, ptr %7, align 4
  %39 = add nsw i32 %38, 1
  store i32 %39, ptr %7, align 4
  br label %9, !llvm.loop !9

40:                                               ; preds = %9
  %41 = load ptr, ptr %3, align 8
  %42 = getelementptr inbounds i8, ptr %41, i64 34
  store i8 0, ptr %42, align 1
  ret void
}