; Function Attrs: mustprogress nofree norecurse nosync nounwind memory(argmem: write) uwtable
define void @_ZN32pxrInternal_v0_24__pxrReserved__8pxr_half9printBitsEPcf(ptr nocapture noundef writeonly %0, float noundef %1) local_unnamed_addr #3 {
  %3 = bitcast float %1 to i32
  br label %4

4:                                                ; preds = %2, %15
  %.014 = phi i32 [ 0, %2 ], [ %17, %15 ]
  %.01213 = phi i32 [ 31, %2 ], [ %16, %15 ]
  %5 = shl nuw i32 1, %.01213
  %6 = and i32 %5, %3
  %.not = icmp eq i32 %6, 0
  %7 = select i1 %.not, i8 48, i8 49
  %8 = sext i32 %.014 to i64
  %9 = getelementptr inbounds i8, ptr %0, i64 %8
  store i8 %7, ptr %9, align 1
  %10 = and i32 %.01213, 2147483639
  %or.cond = icmp eq i32 %10, 23
  br i1 %or.cond, label %11, label %15

11:                                               ; preds = %4
  %12 = add nsw i32 %.014, 1
  %13 = sext i32 %12 to i64
  %14 = getelementptr inbounds i8, ptr %0, i64 %13
  store i8 32, ptr %14, align 1
  br label %15

15:                                               ; preds = %11, %4
  %.1 = phi i32 [ %12, %11 ], [ %.014, %4 ]
  %16 = add nsw i32 %.01213, -1
  %17 = add nsw i32 %.1, 1
  %.not15 = icmp eq i32 %.01213, 0
  br i1 %.not15, label %18, label %4, !llvm.loop !9

18:                                               ; preds = %15
  %19 = getelementptr inbounds i8, ptr %0, i64 34
  store i8 0, ptr %19, align 1
  ret void
}